target datalayout = "e-m:e-p270:32:32-p271:32:32-p272:64:64-i64:64-i128:128-f80:128-n8:16:32:64-S128"
target triple = "x86_64-pc-linux-gnu"

%struct.test_fixture = type { ptr, ptr }

@.str = private unnamed_addr constant [31 x i8] c"../openssl/test/cmp_ctx_test.c\00", align 1
@.str.20 = private unnamed_addr constant [27 x i8] c"test_CTX_set0_get0_trusted\00", align 1
@.str.62 = private unnamed_addr constant [17 x i8] c"ERR_peek_error()\00", align 1
@.str.63 = private unnamed_addr constant [2 x i8] c"0\00", align 1
@.str.64 = private unnamed_addr constant [43 x i8] c"setter did not return error on ctx == NULL\00", align 1
@.str.65 = private unnamed_addr constant [43 x i8] c"getter did not return error on ctx == NULL\00", align 1
@.str.66 = private unnamed_addr constant [26 x i8] c"did not get default value\00", align 1
@.str.67 = private unnamed_addr constant [27 x i8] c"setting first value failed\00", align 1
@.str.68 = private unnamed_addr constant [34 x i8] c"set/get first value did not match\00", align 1
@.str.69 = private unnamed_addr constant [28 x i8] c"setting second value failed\00", align 1
@.str.70 = private unnamed_addr constant [27 x i8] c"second set reset the value\00", align 1
@.str.71 = private unnamed_addr constant [35 x i8] c"set/get second value did not match\00", align 1
@.str.72 = private unnamed_addr constant [26 x i8] c"third set reset the value\00", align 1
@.str.73 = private unnamed_addr constant [31 x i8] c"third get gave different value\00", align 1
@.str.74 = private unnamed_addr constant [4 x i8] c"res\00", align 1

; Function Attrs: nounwind uwtable
define internal ptr @X509_STORE_new_1() #0 {
  %1 = alloca ptr, align 8
  call void @llvm.lifetime.start.p0(i64 8, ptr %1) #5
  %2 = call ptr @X509_STORE_new()
  store ptr %2, ptr %1, align 8, !tbaa !68
  %3 = load ptr, ptr %1, align 8, !tbaa !68
  %4 = icmp ne ptr %3, null
  br i1 %4, label %5, label %9

5:                                                ; preds = %0
  %6 = load ptr, ptr %1, align 8, !tbaa !68
  %7 = call ptr @X509_STORE_get0_param(ptr noundef %6)
  %8 = call i32 @X509_VERIFY_PARAM_set_flags(ptr noundef %7, i64 noundef 1)
  br label %9

9:                                                ; preds = %5, %0
  %10 = load ptr, ptr %1, align 8, !tbaa !68
  call void @llvm.lifetime.end.p0(i64 8, ptr %1) #5
  ret ptr %10
}

; Function Attrs: nounwind uwtable
define internal void @tear_down(ptr noundef %0) #0 {
  %2 = alloca ptr, align 8
  store ptr %0, ptr %2, align 8, !tbaa !15
  %3 = load ptr, ptr %2, align 8, !tbaa !15
  %4 = icmp ne ptr %3, null
  br i1 %4, label %5, label %9

5:                                                ; preds = %1
  %6 = load ptr, ptr %2, align 8, !tbaa !15
  %7 = getelementptr inbounds nuw %struct.test_fixture, ptr %6, i32 0, i32 1
  %8 = load ptr, ptr %7, align 8, !tbaa !17
  call void @OSSL_CMP_CTX_free(ptr noundef %8)
  br label %9

9:                                                ; preds = %5, %1
  %10 = load ptr, ptr %2, align 8, !tbaa !15
  call void @CRYPTO_free(ptr noundef %10, ptr noundef @.str, i32 noundef 25)
  ret void
}

; Function Attrs: nounwind uwtable
define internal i32 @execute_CTX_set0_get0_trusted(ptr noundef %0) #0 {
  %2 = alloca ptr, align 8
  %3 = alloca ptr, align 8
  %4 = alloca ptr, align 8
  %5 = alloca ptr, align 8
  %6 = alloca ptr, align 8
  %7 = alloca ptr, align 8
  %8 = alloca ptr, align 8
  %9 = alloca ptr, align 8
  %10 = alloca ptr, align 8
  %11 = alloca ptr, align 8
  %12 = alloca ptr, align 8
  %13 = alloca i32, align 4
  store ptr %0, ptr %2, align 8, !tbaa !15
  call void @llvm.lifetime.start.p0(i64 8, ptr %3) #5
  %14 = load ptr, ptr %2, align 8, !tbaa !15
  %15 = getelementptr inbounds nuw %struct.test_fixture, ptr %14, i32 0, i32 1
  %16 = load ptr, ptr %15, align 8, !tbaa !17
  store ptr %16, ptr %3, align 8, !tbaa !11
  call void @llvm.lifetime.start.p0(i64 8, ptr %4) #5
  store ptr @OSSL_CMP_CTX_set0_trustedStore, ptr %4, align 8, !tbaa !50
  call void @llvm.lifetime.start.p0(i64 8, ptr %5) #5
  store ptr @OSSL_CMP_CTX_get0_trustedStore, ptr %5, align 8, !tbaa !50
  call void @llvm.lifetime.start.p0(i64 8, ptr %6) #5
  %17 = call ptr @X509_STORE_new_1()
  store ptr %17, ptr %6, align 8, !tbaa !68
  call void @llvm.lifetime.start.p0(i64 8, ptr %7) #5
  %18 = load ptr, ptr %6, align 8, !tbaa !68
  store ptr %18, ptr %7, align 8, !tbaa !68
  call void @llvm.lifetime.start.p0(i64 8, ptr %8) #5
  store ptr null, ptr %8, align 8, !tbaa !68
  call void @llvm.lifetime.start.p0(i64 8, ptr %9) #5
  %19 = call ptr @X509_STORE_new_1()
  store ptr %19, ptr %9, align 8, !tbaa !68
  call void @llvm.lifetime.start.p0(i64 8, ptr %10) #5
  %20 = load ptr, ptr %9, align 8, !tbaa !68
  store ptr %20, ptr %10, align 8, !tbaa !68
  call void @llvm.lifetime.start.p0(i64 8, ptr %11) #5
  store ptr null, ptr %11, align 8, !tbaa !68
  call void @llvm.lifetime.start.p0(i64 8, ptr %12) #5
  store ptr null, ptr %12, align 8, !tbaa !68
  call void @llvm.lifetime.start.p0(i64 4, ptr %13) #5
  store i32 1, ptr %13, align 4, !tbaa !13
  %21 = call i64 @ERR_peek_error()
  %22 = trunc i64 %21 to i32
  %23 = call i32 @test_int_eq(ptr noundef @.str, i32 noundef 768, ptr noundef @.str.62, ptr noundef @.str.63, i32 noundef %22, i32 noundef 0)
  %24 = icmp ne i32 %23, 0
  br i1 %24, label %26, label %25

25:                                               ; preds = %1
  store i32 0, ptr %13, align 4, !tbaa !13
  br label %26

26:                                               ; preds = %25, %1
  %27 = load ptr, ptr %4, align 8, !tbaa !50
  %28 = load ptr, ptr %7, align 8, !tbaa !68
  %29 = call i32 %27(ptr noundef null, ptr noundef %28)
  %30 = icmp ne i32 %29, 0
  br i1 %30, label %34, label %31

31:                                               ; preds = %26
  %32 = call i64 @ERR_peek_error()
  %33 = icmp eq i64 %32, 0
  br i1 %33, label %34, label %35

34:                                               ; preds = %31, %26
  call void (ptr, i32, ptr, ...) @test_error(ptr noundef @.str, i32 noundef 768, ptr noundef @.str.64)
  store i32 0, ptr %13, align 4, !tbaa !13
  br label %35

35:                                               ; preds = %34, %31
  call void @ERR_clear_error()
  %36 = load ptr, ptr %5, align 8, !tbaa !50
  %37 = call ptr %36(ptr noundef null)
  %38 = icmp ne ptr %37, null
  br i1 %38, label %42, label %39

39:                                               ; preds = %35
  %40 = call i64 @ERR_peek_error()
  %41 = icmp eq i64 %40, 0
  br i1 %41, label %42, label %43

42:                                               ; preds = %39, %35
  call void (ptr, i32, ptr, ...) @test_error(ptr noundef @.str, i32 noundef 768, ptr noundef @.str.65)
  store i32 0, ptr %13, align 4, !tbaa !13
  br label %43

43:                                               ; preds = %42, %39
  call void @ERR_clear_error()
  %44 = load ptr, ptr %5, align 8, !tbaa !50
  %45 = load ptr, ptr %3, align 8, !tbaa !11
  %46 = call ptr %44(ptr noundef %45)
  store ptr %46, ptr %8, align 8, !tbaa !68
  %47 = load ptr, ptr %8, align 8, !tbaa !68
  %48 = icmp eq ptr %47, null
  br i1 %48, label %55, label %49

49:                                               ; preds = %43
  %50 = load ptr, ptr %8, align 8, !tbaa !68
  %51 = call ptr @X509_STORE_get0_param(ptr noundef %50)
  %52 = call i64 @X509_VERIFY_PARAM_get_flags(ptr noundef %51)
  %53 = icmp eq i64 %52, 0
  br i1 %53, label %55, label %54

54:                                               ; preds = %49
  call void (ptr, i32, ptr, ...) @test_error(ptr noundef @.str, i32 noundef 768, ptr noundef @.str.66)
  store i32 0, ptr %13, align 4, !tbaa !13
  br label %55

55:                                               ; preds = %54, %49, %43
  %56 = load ptr, ptr %4, align 8, !tbaa !50
  %57 = load ptr, ptr %3, align 8, !tbaa !11
  %58 = load ptr, ptr %7, align 8, !tbaa !68
  %59 = call i32 %56(ptr noundef %57, ptr noundef %58)
  %60 = icmp ne i32 %59, 0
  br i1 %60, label %62, label %61

61:                                               ; preds = %55
  call void (ptr, i32, ptr, ...) @test_error(ptr noundef @.str, i32 noundef 768, ptr noundef @.str.67)
  store i32 0, ptr %13, align 4, !tbaa !13
  br label %62

62:                                               ; preds = %61, %55
  store ptr null, ptr %6, align 8, !tbaa !68
  %63 = load ptr, ptr %5, align 8, !tbaa !50
  %64 = load ptr, ptr %3, align 8, !tbaa !11
  %65 = call ptr %63(ptr noundef %64)
  store ptr %65, ptr %8, align 8, !tbaa !68
  %66 = load ptr, ptr %8, align 8, !tbaa !68
  %67 = load ptr, ptr %7, align 8, !tbaa !68
  %68 = icmp ne ptr %66, %67
  br i1 %68, label %69, label %70

69:                                               ; preds = %62
  call void (ptr, i32, ptr, ...) @test_error(ptr noundef @.str, i32 noundef 768, ptr noundef @.str.68)
  store i32 0, ptr %13, align 4, !tbaa !13
  br label %70

70:                                               ; preds = %69, %62
  %71 = load ptr, ptr %4, align 8, !tbaa !50
  %72 = load ptr, ptr %3, align 8, !tbaa !11
  %73 = load ptr, ptr %10, align 8, !tbaa !68
  %74 = call i32 %71(ptr noundef %72, ptr noundef %73)
  %75 = icmp ne i32 %74, 0
  br i1 %75, label %77, label %76

76:                                               ; preds = %70
  call void (ptr, i32, ptr, ...) @test_error(ptr noundef @.str, i32 noundef 768, ptr noundef @.str.69)
  store i32 0, ptr %13, align 4, !tbaa !13
  br label %77

77:                                               ; preds = %76, %70
  store ptr null, ptr %9, align 8, !tbaa !68
  %78 = load ptr, ptr %5, align 8, !tbaa !50
  %79 = load ptr, ptr %3, align 8, !tbaa !11
  %80 = call ptr %78(ptr noundef %79)
  store ptr %80, ptr %11, align 8, !tbaa !68
  %81 = load ptr, ptr %11, align 8, !tbaa !68
  %82 = icmp eq ptr %81, null
  br i1 %82, label %88, label %83

83:                                               ; preds = %77
  %84 = load ptr, ptr %11, align 8, !tbaa !68
  %85 = call ptr @X509_STORE_get0_param(ptr noundef %84)
  %86 = call i64 @X509_VERIFY_PARAM_get_flags(ptr noundef %85)
  %87 = icmp eq i64 %86, 0
  br i1 %87, label %88, label %89

88:                                               ; preds = %83, %77
  call void (ptr, i32, ptr, ...) @test_error(ptr noundef @.str, i32 noundef 768, ptr noundef @.str.70)
  store i32 0, ptr %13, align 4, !tbaa !13
  br label %89

89:                                               ; preds = %88, %83
  %90 = load ptr, ptr %11, align 8, !tbaa !68
  %91 = load ptr, ptr %10, align 8, !tbaa !68
  %92 = icmp ne ptr %90, %91
  br i1 %92, label %93, label %94

93:                                               ; preds = %89
  call void (ptr, i32, ptr, ...) @test_error(ptr noundef @.str, i32 noundef 768, ptr noundef @.str.71)
  store i32 0, ptr %13, align 4, !tbaa !13
  br label %94

94:                                               ; preds = %93, %89
  %95 = load ptr, ptr %5, align 8, !tbaa !50
  %96 = load ptr, ptr %3, align 8, !tbaa !11
  %97 = call ptr %95(ptr noundef %96)
  store ptr %97, ptr %12, align 8, !tbaa !68
  %98 = load ptr, ptr %12, align 8, !tbaa !68
  %99 = icmp eq ptr %98, null
  br i1 %99, label %105, label %100

100:                                              ; preds = %94
  %101 = load ptr, ptr %12, align 8, !tbaa !68
  %102 = call ptr @X509_STORE_get0_param(ptr noundef %101)
  %103 = call i64 @X509_VERIFY_PARAM_get_flags(ptr noundef %102)
  %104 = icmp eq i64 %103, 0
  br i1 %104, label %105, label %106

105:                                              ; preds = %100, %94
  call void (ptr, i32, ptr, ...) @test_error(ptr noundef @.str, i32 noundef 768, ptr noundef @.str.72)
  store i32 0, ptr %13, align 4, !tbaa !13
  br label %106

106:                                              ; preds = %105, %100
  %107 = load ptr, ptr %12, align 8, !tbaa !68
  %108 = load ptr, ptr %11, align 8, !tbaa !68
  %109 = icmp ne ptr %107, %108
  br i1 %109, label %110, label %111

110:                                              ; preds = %106
  call void (ptr, i32, ptr, ...) @test_error(ptr noundef @.str, i32 noundef 768, ptr noundef @.str.73)
  store i32 0, ptr %13, align 4, !tbaa !13
  br label %111

111:                                              ; preds = %110, %106
  %112 = call i64 @ERR_peek_error()
  %113 = trunc i64 %112 to i32
  %114 = call i32 @test_int_eq(ptr noundef @.str, i32 noundef 768, ptr noundef @.str.62, ptr noundef @.str.63, i32 noundef %113, i32 noundef 0)
  %115 = icmp ne i32 %114, 0
  br i1 %115, label %117, label %116

116:                                              ; preds = %111
  store i32 0, ptr %13, align 4, !tbaa !13
  br label %117

117:                                              ; preds = %116, %111
  %118 = load ptr, ptr %6, align 8, !tbaa !68
  call void @X509_STORE_free(ptr noundef %118)
  %119 = load ptr, ptr %9, align 8, !tbaa !68
  call void @X509_STORE_free(ptr noundef %119)
  %120 = load i32, ptr %13, align 4, !tbaa !13
  %121 = icmp ne i32 %120, 0
  %122 = zext i1 %121 to i32
  %123 = call i32 @test_true(ptr noundef @.str, i32 noundef 768, ptr noundef @.str.74, i32 noundef %122)
  call void @llvm.lifetime.end.p0(i64 4, ptr %13) #5
  call void @llvm.lifetime.end.p0(i64 8, ptr %12) #5
  call void @llvm.lifetime.end.p0(i64 8, ptr %11) #5
  call void @llvm.lifetime.end.p0(i64 8, ptr %10) #5
  call void @llvm.lifetime.end.p0(i64 8, ptr %9) #5
  call void @llvm.lifetime.end.p0(i64 8, ptr %8) #5
  call void @llvm.lifetime.end.p0(i64 8, ptr %7) #5
  call void @llvm.lifetime.end.p0(i64 8, ptr %6) #5
  call void @llvm.lifetime.end.p0(i64 8, ptr %5) #5
  call void @llvm.lifetime.end.p0(i64 8, ptr %4) #5
  call void @llvm.lifetime.end.p0(i64 8, ptr %3) #5
  ret i32 %123
}

; Function Attrs: nounwind uwtable
define internal i32 @test_CTX_set0_get0_trusted() #0 {
  %1 = alloca i32, align 4
  %2 = alloca ptr, align 8
  %3 = alloca i32, align 4
  %4 = alloca i32, align 4
  call void @llvm.lifetime.start.p0(i64 8, ptr %2) #5
  %5 = call ptr @set_up(ptr noundef @.str.20)
  store ptr %5, ptr %2, align 8, !tbaa !15
  call void @llvm.lifetime.start.p0(i64 4, ptr %3) #5
  store i32 0, ptr %3, align 4, !tbaa !13
  %6 = load ptr, ptr %2, align 8, !tbaa !15
  %7 = icmp eq ptr %6, null
  br i1 %7, label %8, label %9

8:                                                ; preds = %0
  store i32 0, ptr %1, align 4
  store i32 1, ptr %4, align 4
  br label %18

9:                                                ; preds = %0
  %10 = load ptr, ptr %2, align 8, !tbaa !15
  %11 = icmp ne ptr %10, null
  br i1 %11, label %12, label %16

12:                                               ; preds = %9
  %13 = load ptr, ptr %2, align 8, !tbaa !15
  %14 = call i32 @execute_CTX_set0_get0_trusted(ptr noundef %13)
  store i32 %14, ptr %3, align 4, !tbaa !13
  %15 = load ptr, ptr %2, align 8, !tbaa !15
  call void @tear_down(ptr noundef %15)
  br label %16

16:                                               ; preds = %12, %9
  %17 = load i32, ptr %3, align 4, !tbaa !13
  store i32 %17, ptr %1, align 4
  store i32 1, ptr %4, align 4
  br label %18

18:                                               ; preds = %16, %8
  call void @llvm.lifetime.end.p0(i64 4, ptr %3) #5
  call void @llvm.lifetime.end.p0(i64 8, ptr %2) #5
  %19 = load i32, ptr %1, align 4
  ret i32 %19
}