; Function Attrs: nounwind uwtable
define internal i32 @test_CTX_set0_get0_trusted() #1 {
  %1 = tail call fastcc ptr @set_up(ptr noundef nonnull @.str.20)
  %2 = icmp eq ptr %1, null
  br i1 %2, label %72, label %3

3:                                                ; preds = %0
  %4 = getelementptr i8, ptr %1, i64 8
  %.val = load ptr, ptr %4, align 8, !tbaa !4
  %5 = tail call ptr @X509_STORE_new() #6
  %.not.i.i = icmp eq ptr %5, null
  br i1 %.not.i.i, label %X509_STORE_new_1.exit.i, label %6

6:                                                ; preds = %3
  %7 = tail call ptr @X509_STORE_get0_param(ptr noundef nonnull %5) #6
  %8 = tail call i32 @X509_VERIFY_PARAM_set_flags(ptr noundef %7, i64 noundef 1) #6
  br label %X509_STORE_new_1.exit.i

X509_STORE_new_1.exit.i:                          ; preds = %6, %3
  %9 = tail call ptr @X509_STORE_new() #6
  %.not.i46.i = icmp eq ptr %9, null
  br i1 %.not.i46.i, label %X509_STORE_new_1.exit47.i, label %10

10:                                               ; preds = %X509_STORE_new_1.exit.i
  %11 = tail call ptr @X509_STORE_get0_param(ptr noundef nonnull %9) #6
  %12 = tail call i32 @X509_VERIFY_PARAM_set_flags(ptr noundef %11, i64 noundef 1) #6
  br label %X509_STORE_new_1.exit47.i

X509_STORE_new_1.exit47.i:                        ; preds = %10, %X509_STORE_new_1.exit.i
  %13 = tail call i64 @ERR_peek_error() #6
  %14 = trunc i64 %13 to i32
  %15 = tail call i32 @test_int_eq(ptr noundef nonnull @.str, i32 noundef 768, ptr noundef nonnull @.str.62, ptr noundef nonnull @.str.63, i32 noundef %14, i32 noundef 0) #6
  %16 = tail call i32 @OSSL_CMP_CTX_set0_trustedStore(ptr noundef null, ptr noundef %5) #6
  %.not37.i = icmp eq i32 %16, 0
  br i1 %.not37.i, label %17, label %20

17:                                               ; preds = %X509_STORE_new_1.exit47.i
  %.not.i = icmp ne i32 %15, 0
  %spec.select.i = zext i1 %.not.i to i32
  %18 = tail call i64 @ERR_peek_error() #6
  %19 = icmp eq i64 %18, 0
  br i1 %19, label %20, label %21

20:                                               ; preds = %17, %X509_STORE_new_1.exit47.i
  tail call void (ptr, i32, ptr, ...) @test_error(ptr noundef nonnull @.str, i32 noundef 768, ptr noundef nonnull @.str.64) #6
  br label %21

21:                                               ; preds = %20, %17
  %.1.i = phi i32 [ 0, %20 ], [ %spec.select.i, %17 ]
  tail call void @ERR_clear_error() #6
  %22 = tail call ptr @OSSL_CMP_CTX_get0_trustedStore(ptr noundef null) #6
  %.not38.i = icmp eq ptr %22, null
  br i1 %.not38.i, label %23, label %26

23:                                               ; preds = %21
  %24 = tail call i64 @ERR_peek_error() #6
  %25 = icmp eq i64 %24, 0
  br i1 %25, label %26, label %27

26:                                               ; preds = %23, %21
  tail call void (ptr, i32, ptr, ...) @test_error(ptr noundef nonnull @.str, i32 noundef 768, ptr noundef nonnull @.str.65) #6
  br label %27

27:                                               ; preds = %26, %23
  %.2.i = phi i32 [ 0, %26 ], [ %.1.i, %23 ]
  tail call void @ERR_clear_error() #6
  %28 = tail call ptr @OSSL_CMP_CTX_get0_trustedStore(ptr noundef %.val) #6
  %29 = icmp eq ptr %28, null
  br i1 %29, label %35, label %30

30:                                               ; preds = %27
  %31 = tail call ptr @X509_STORE_get0_param(ptr noundef nonnull %28) #6
  %32 = tail call i64 @X509_VERIFY_PARAM_get_flags(ptr noundef %31) #6
  %33 = icmp eq i64 %32, 0
  br i1 %33, label %35, label %34

34:                                               ; preds = %30
  tail call void (ptr, i32, ptr, ...) @test_error(ptr noundef nonnull @.str, i32 noundef 768, ptr noundef nonnull @.str.66) #6
  br label %35

35:                                               ; preds = %34, %30, %27
  %.3.i = phi i32 [ %.2.i, %27 ], [ %.2.i, %30 ], [ 0, %34 ]
  %36 = tail call i32 @OSSL_CMP_CTX_set0_trustedStore(ptr noundef %.val, ptr noundef %5) #6
  %.not39.i = icmp eq i32 %36, 0
  br i1 %.not39.i, label %37, label %38

37:                                               ; preds = %35
  tail call void (ptr, i32, ptr, ...) @test_error(ptr noundef nonnull @.str, i32 noundef 768, ptr noundef nonnull @.str.67) #6
  br label %38

38:                                               ; preds = %37, %35
  %.4.i = phi i32 [ %.3.i, %35 ], [ 0, %37 ]
  %39 = tail call ptr @OSSL_CMP_CTX_get0_trustedStore(ptr noundef %.val) #6
  %.not40.i = icmp eq ptr %39, %5
  br i1 %.not40.i, label %41, label %40

40:                                               ; preds = %38
  tail call void (ptr, i32, ptr, ...) @test_error(ptr noundef nonnull @.str, i32 noundef 768, ptr noundef nonnull @.str.68) #6
  br label %41

41:                                               ; preds = %40, %38
  %.5.i = phi i32 [ 0, %40 ], [ %.4.i, %38 ]
  %42 = tail call i32 @OSSL_CMP_CTX_set0_trustedStore(ptr noundef %.val, ptr noundef %9) #6
  %.not41.i = icmp eq i32 %42, 0
  br i1 %.not41.i, label %43, label %44

43:                                               ; preds = %41
  tail call void (ptr, i32, ptr, ...) @test_error(ptr noundef nonnull @.str, i32 noundef 768, ptr noundef nonnull @.str.69) #6
  br label %44

44:                                               ; preds = %43, %41
  %.6.i = phi i32 [ %.5.i, %41 ], [ 0, %43 ]
  %45 = tail call ptr @OSSL_CMP_CTX_get0_trustedStore(ptr noundef %.val) #6
  %46 = icmp eq ptr %45, null
  br i1 %46, label %51, label %47

47:                                               ; preds = %44
  %48 = tail call ptr @X509_STORE_get0_param(ptr noundef nonnull %45) #6
  %49 = tail call i64 @X509_VERIFY_PARAM_get_flags(ptr noundef %48) #6
  %50 = icmp eq i64 %49, 0
  br i1 %50, label %51, label %52

51:                                               ; preds = %47, %44
  tail call void (ptr, i32, ptr, ...) @test_error(ptr noundef nonnull @.str, i32 noundef 768, ptr noundef nonnull @.str.70) #6
  br label %52

52:                                               ; preds = %51, %47
  %.7.i = phi i32 [ 0, %51 ], [ %.6.i, %47 ]
  %.not42.i = icmp eq ptr %45, %9
  br i1 %.not42.i, label %54, label %53

53:                                               ; preds = %52
  tail call void (ptr, i32, ptr, ...) @test_error(ptr noundef nonnull @.str, i32 noundef 768, ptr noundef nonnull @.str.71) #6
  br label %54

54:                                               ; preds = %53, %52
  %.8.i = phi i32 [ 0, %53 ], [ %.7.i, %52 ]
  %55 = tail call ptr @OSSL_CMP_CTX_get0_trustedStore(ptr noundef %.val) #6
  %56 = icmp eq ptr %55, null
  br i1 %56, label %61, label %57

57:                                               ; preds = %54
  %58 = tail call ptr @X509_STORE_get0_param(ptr noundef nonnull %55) #6
  %59 = tail call i64 @X509_VERIFY_PARAM_get_flags(ptr noundef %58) #6
  %60 = icmp eq i64 %59, 0
  br i1 %60, label %61, label %62

61:                                               ; preds = %57, %54
  tail call void (ptr, i32, ptr, ...) @test_error(ptr noundef nonnull @.str, i32 noundef 768, ptr noundef nonnull @.str.72) #6
  br label %62

62:                                               ; preds = %61, %57
  %.9.i = phi i32 [ 0, %61 ], [ %.8.i, %57 ]
  %.not43.i = icmp eq ptr %55, %45
  br i1 %.not43.i, label %tear_down.exit, label %63

63:                                               ; preds = %62
  tail call void (ptr, i32, ptr, ...) @test_error(ptr noundef nonnull @.str, i32 noundef 768, ptr noundef nonnull @.str.73) #6
  br label %tear_down.exit

tear_down.exit:                                   ; preds = %62, %63
  %.10.i = phi i32 [ 0, %63 ], [ %.9.i, %62 ]
  %64 = tail call i64 @ERR_peek_error() #6
  %65 = trunc i64 %64 to i32
  %66 = tail call i32 @test_int_eq(ptr noundef nonnull @.str, i32 noundef 768, ptr noundef nonnull @.str.62, ptr noundef nonnull @.str.63, i32 noundef %65, i32 noundef 0) #6
  %.not44.i = icmp ne i32 %66, 0
  tail call void @X509_STORE_free(ptr noundef null) #6
  tail call void @X509_STORE_free(ptr noundef null) #6
  %67 = icmp ne i32 %.10.i, 0
  %68 = select i1 %.not44.i, i1 %67, i1 false
  %69 = zext i1 %68 to i32
  %70 = tail call i32 @test_true(ptr noundef nonnull @.str, i32 noundef 768, ptr noundef nonnull @.str.74, i32 noundef %69) #6
  %71 = load ptr, ptr %4, align 8, !tbaa !4
  tail call void @OSSL_CMP_CTX_free(ptr noundef %71) #6
  tail call void @CRYPTO_free(ptr noundef nonnull %1, ptr noundef nonnull @.str, i32 noundef 25) #6
  br label %72

72:                                               ; preds = %0, %tear_down.exit
  %.05 = phi i32 [ %70, %tear_down.exit ], [ 0, %0 ]
  ret i32 %.05
}